target datalayout = "e-m:e-p270:32:32-p271:32:32-p272:64:64-i64:64-i128:128-f80:128-n8:16:32:64-S128"
target triple = "x86_64-pc-linux-gnu"

%"class.std::vector" = type { %"struct.std::_Vector_base" }
%"struct.std::_Vector_base" = type { %"struct.std::_Vector_base<std::__cxx11::basic_string<char>, std::allocator<std::__cxx11::basic_string<char>>>::_Vector_impl" }
%"struct.std::_Vector_base<std::__cxx11::basic_string<char>, std::allocator<std::__cxx11::basic_string<char>>>::_Vector_impl" = type { %"struct.std::_Vector_base<std::__cxx11::basic_string<char>, std::allocator<std::__cxx11::basic_string<char>>>::_Vector_impl_data" }
%"struct.std::_Vector_base<std::__cxx11::basic_string<char>, std::allocator<std::__cxx11::basic_string<char>>>::_Vector_impl_data" = type { ptr, ptr, ptr }
%"class.std::__cxx11::basic_string" = type { %"struct.std::__cxx11::basic_string<char>::_Alloc_hider", i64, %union.anon }
%"struct.std::__cxx11::basic_string<char>::_Alloc_hider" = type { ptr }
%union.anon = type { i64, [8 x i8] }
%"struct.std::_Rb_tree_key_compare" = type { %"struct.std::less" }
%"struct.std::less" = type { i8 }
%"struct.std::_Rb_tree_header" = type { %"struct.std::_Rb_tree_node_base", i64 }
%"struct.std::_Rb_tree_node_base" = type { i32, ptr, ptr, ptr }
%"class.casadi::Qrsqp" = type <{ %"class.casadi::Nlpsol", %"class.casadi::Function", i8, [7 x i8], i64, i64, i64, double, double, double, double, double, i64, i64, i8, i8, [6 x i8], %"class.casadi::Sparsity", %"class.casadi::Sparsity", i8, [7 x i8] }>
%"class.casadi::Nlpsol" = type { %"class.casadi::OracleFunction", %"class.casadi::PluginInterface", %"struct.casadi::casadi_nlpsol_prob", i64, i64, i64, %"class.casadi::Function", i64, %"class.std::__cxx11::basic_string", %"class.std::map.28", %"class.std::vector.44", %"class.casadi::Function", %"class.std::vector.46", %"class.std::vector.46", i8, i8, i8, i8, i8, i8, i8, i8, i8, double, i8, %"class.std::vector.19", i8, %"class.casadi::WeakRef" }
%"class.casadi::OracleFunction" = type { %"class.casadi::FunctionInternal", %"class.casadi::Function", %"class.std::map.28", %"class.std::map.28", i8, i32, %"class.std::map.39", %"class.std::vector", i64, i64, i64, i64 }
%"class.casadi::FunctionInternal" = type { %"class.casadi::ProtoFunction", i8, i8, i64, i64, %"class.std::vector.19", %"class.std::vector.19", %"class.std::vector.23", %"class.std::vector.23", %"class.std::vector", %"class.std::vector", i8, i8, %"class.std::__cxx11::basic_string", %"class.std::__cxx11::basic_string", %"class.std::__cxx11::basic_string", i8, ptr, ptr, ptr, %"class.std::map.28", i8, %"class.std::map.28", %"class.std::map.33", [2 x %"class.std::vector.23"], %"class.casadi::Function", ptr, %"class.std::__cxx11::basic_string", %"class.casadi::Importer", %"class.std::map.28", double, i8, i8, i8, i8, i8, i8, i8, i8, double, double, i64, i8, %"class.std::map.28", double, %"class.std::__cxx11::basic_string", i8, i8, i64, i8, i8, i8, %"class.std::__cxx11::basic_string", %"class.std::__cxx11::basic_string", %"class.std::map.28", %"class.std::map.28", %"class.std::map.28", %"class.std::map.28", %"class.casadi::Function", i64, i64, i64, i64, i64, i64, i64, i64, i64 }
%"class.casadi::ProtoFunction" = type { %"class.casadi::SharedObjectInternal", %"class.std::__cxx11::basic_string", i8, i8, i8, i8, i8, %"class.std::vector.11", %"class.std::stack" }
%"class.casadi::SharedObjectInternal" = type { ptr, i64, ptr }
%"class.std::vector.11" = type { %"struct.std::_Vector_base.12" }
%"struct.std::_Vector_base.12" = type { %"struct.std::_Vector_base<void *, std::allocator<void *>>::_Vector_impl" }
%"struct.std::_Vector_base<void *, std::allocator<void *>>::_Vector_impl" = type { %"struct.std::_Vector_base<void *, std::allocator<void *>>::_Vector_impl_data" }
%"struct.std::_Vector_base<void *, std::allocator<void *>>::_Vector_impl_data" = type { ptr, ptr, ptr }
%"class.std::stack" = type { %"class.std::deque" }
%"class.std::deque" = type { %"class.std::_Deque_base" }
%"class.std::_Deque_base" = type { %"struct.std::_Deque_base<int, std::allocator<int>>::_Deque_impl" }
%"struct.std::_Deque_base<int, std::allocator<int>>::_Deque_impl" = type { %"struct.std::_Deque_base<int, std::allocator<int>>::_Deque_impl_data" }
%"struct.std::_Deque_base<int, std::allocator<int>>::_Deque_impl_data" = type { ptr, i64, %"struct.std::_Deque_iterator", %"struct.std::_Deque_iterator" }
%"struct.std::_Deque_iterator" = type { ptr, ptr, ptr, ptr }
%"class.std::vector.23" = type { %"struct.std::_Vector_base.24" }
%"struct.std::_Vector_base.24" = type { %"struct.std::_Vector_base<casadi::Sparsity, std::allocator<casadi::Sparsity>>::_Vector_impl" }
%"struct.std::_Vector_base<casadi::Sparsity, std::allocator<casadi::Sparsity>>::_Vector_impl" = type { %"struct.std::_Vector_base<casadi::Sparsity, std::allocator<casadi::Sparsity>>::_Vector_impl_data" }
%"struct.std::_Vector_base<casadi::Sparsity, std::allocator<casadi::Sparsity>>::_Vector_impl_data" = type { ptr, ptr, ptr }
%"class.std::map.33" = type { %"class.std::_Rb_tree.34" }
%"class.std::_Rb_tree.34" = type { %"struct.std::_Rb_tree<std::__cxx11::basic_string<char>, std::pair<const std::__cxx11::basic_string<char>, casadi::WeakRef>, std::_Select1st<std::pair<const std::__cxx11::basic_string<char>, casadi::WeakRef>>, std::less<std::__cxx11::basic_string<char>>>::_Rb_tree_impl" }
%"struct.std::_Rb_tree<std::__cxx11::basic_string<char>, std::pair<const std::__cxx11::basic_string<char>, casadi::WeakRef>, std::_Select1st<std::pair<const std::__cxx11::basic_string<char>, casadi::WeakRef>>, std::less<std::__cxx11::basic_string<char>>>::_Rb_tree_impl" = type { %"struct.std::_Rb_tree_key_compare", %"struct.std::_Rb_tree_header" }
%"class.casadi::Importer" = type { %"class.casadi::SharedObject" }
%"class.casadi::SharedObject" = type { ptr }
%"class.std::map.39" = type { %"class.std::_Rb_tree.40" }
%"class.std::_Rb_tree.40" = type { %"struct.std::_Rb_tree<std::__cxx11::basic_string<char>, std::pair<const std::__cxx11::basic_string<char>, casadi::OracleFunction::RegFun>, std::_Select1st<std::pair<const std::__cxx11::basic_string<char>, casadi::OracleFunction::RegFun>>, std::less<std::__cxx11::basic_string<char>>>::_Rb_tree_impl" }
%"struct.std::_Rb_tree<std::__cxx11::basic_string<char>, std::pair<const std::__cxx11::basic_string<char>, casadi::OracleFunction::RegFun>, std::_Select1st<std::pair<const std::__cxx11::basic_string<char>, casadi::OracleFunction::RegFun>>, std::less<std::__cxx11::basic_string<char>>>::_Rb_tree_impl" = type { %"struct.std::_Rb_tree_key_compare", %"struct.std::_Rb_tree_header" }
%"class.casadi::PluginInterface" = type { ptr }
%"struct.casadi::casadi_nlpsol_prob" = type { i64, i64, i64, %"struct.casadi::casadi_nlpsol_detect_bounds_prob" }
%"struct.casadi::casadi_nlpsol_detect_bounds_prob" = type { i64, i64, i64, i64, i64, i64, ptr, ptr, ptr, ptr, ptr }
%"class.std::map.28" = type { %"class.std::_Rb_tree.29" }
%"class.std::_Rb_tree.29" = type { %"struct.std::_Rb_tree<std::__cxx11::basic_string<char>, std::pair<const std::__cxx11::basic_string<char>, casadi::GenericType>, std::_Select1st<std::pair<const std::__cxx11::basic_string<char>, casadi::GenericType>>, std::less<std::__cxx11::basic_string<char>>>::_Rb_tree_impl" }
%"struct.std::_Rb_tree<std::__cxx11::basic_string<char>, std::pair<const std::__cxx11::basic_string<char>, casadi::GenericType>, std::_Select1st<std::pair<const std::__cxx11::basic_string<char>, casadi::GenericType>>, std::less<std::__cxx11::basic_string<char>>>::_Rb_tree_impl" = type { %"struct.std::_Rb_tree_key_compare", %"struct.std::_Rb_tree_header" }
%"class.std::vector.44" = type { %"struct.std::_Vector_base.45" }
%"struct.std::_Vector_base.45" = type { %"struct.std::_Vector_base<char, std::allocator<char>>::_Vector_impl" }
%"struct.std::_Vector_base<char, std::allocator<char>>::_Vector_impl" = type { %"struct.std::_Vector_base<char, std::allocator<char>>::_Vector_impl_data" }
%"struct.std::_Vector_base<char, std::allocator<char>>::_Vector_impl_data" = type { ptr, ptr, ptr }
%"class.std::vector.46" = type { %"struct.std::_Vector_base.47" }
%"struct.std::_Vector_base.47" = type { %"struct.std::_Vector_base<long long, std::allocator<long long>>::_Vector_impl" }
%"struct.std::_Vector_base<long long, std::allocator<long long>>::_Vector_impl" = type { %"struct.std::_Vector_base<long long, std::allocator<long long>>::_Vector_impl_data" }
%"struct.std::_Vector_base<long long, std::allocator<long long>>::_Vector_impl_data" = type { ptr, ptr, ptr }
%"class.std::vector.19" = type { %"struct.std::_Bvector_base" }
%"struct.std::_Bvector_base" = type { %"struct.std::_Bvector_base<std::allocator<bool>>::_Bvector_impl" }
%"struct.std::_Bvector_base<std::allocator<bool>>::_Bvector_impl" = type { %"struct.std::_Bvector_base<std::allocator<bool>>::_Bvector_impl_data" }
%"struct.std::_Bvector_base<std::allocator<bool>>::_Bvector_impl_data" = type { %"struct.std::_Bit_iterator", %"struct.std::_Bit_iterator", ptr }
%"struct.std::_Bit_iterator" = type { %"struct.std::_Bit_iterator_base.base", [4 x i8] }
%"struct.std::_Bit_iterator_base.base" = type <{ ptr, i32 }>
%"class.casadi::WeakRef" = type { %"class.casadi::SharedObject" }
%"class.casadi::Function" = type { %"class.casadi::SharedObject" }
%"class.casadi::Sparsity" = type { %"class.casadi::SharedObject" }
%"struct.casadi::QrsqpMemory" = type <{ %"struct.casadi::NlpsolMemory", ptr, ptr, ptr, ptr, ptr, ptr, ptr, ptr, ptr, ptr, double, double, ptr, i64, ptr, i32, [4 x i8] }>
%"struct.casadi::NlpsolMemory" = type { %"struct.casadi::OracleMemory", %"struct.casadi::casadi_nlpsol_data", i64, i8, i32 }
%"struct.casadi::OracleMemory" = type { %"struct.casadi::FunctionMemory", ptr, ptr, ptr, ptr, %"class.std::vector.87" }
%"struct.casadi::FunctionMemory" = type { %"struct.casadi::ProtoFunctionMemory" }
%"struct.casadi::ProtoFunctionMemory" = type { %"class.std::map.82", ptr }
%"class.std::map.82" = type { %"class.std::_Rb_tree.83" }
%"class.std::_Rb_tree.83" = type { %"struct.std::_Rb_tree<std::__cxx11::basic_string<char>, std::pair<const std::__cxx11::basic_string<char>, casadi::FStats>, std::_Select1st<std::pair<const std::__cxx11::basic_string<char>, casadi::FStats>>, std::less<std::__cxx11::basic_string<char>>>::_Rb_tree_impl" }
%"struct.std::_Rb_tree<std::__cxx11::basic_string<char>, std::pair<const std::__cxx11::basic_string<char>, casadi::FStats>, std::_Select1st<std::pair<const std::__cxx11::basic_string<char>, casadi::FStats>>, std::less<std::__cxx11::basic_string<char>>>::_Rb_tree_impl" = type { %"struct.std::_Rb_tree_key_compare", %"struct.std::_Rb_tree_header" }
%"class.std::vector.87" = type { %"struct.std::_Vector_base.88" }
%"struct.std::_Vector_base.88" = type { %"struct.std::_Vector_base<casadi::LocalOracleMemory *, std::allocator<casadi::LocalOracleMemory *>>::_Vector_impl" }
%"struct.std::_Vector_base<casadi::LocalOracleMemory *, std::allocator<casadi::LocalOracleMemory *>>::_Vector_impl" = type { %"struct.std::_Vector_base<casadi::LocalOracleMemory *, std::allocator<casadi::LocalOracleMemory *>>::_Vector_impl_data" }
%"struct.std::_Vector_base<casadi::LocalOracleMemory *, std::allocator<casadi::LocalOracleMemory *>>::_Vector_impl_data" = type { ptr, ptr, ptr }
%"struct.casadi::casadi_nlpsol_data" = type { ptr, ptr, ptr, ptr, ptr, double, ptr, ptr, ptr, ptr, ptr, ptr, ptr, ptr, ptr, ptr, ptr, ptr, ptr, ptr, %"struct.casadi::casadi_nlpsol_detect_bounds_data" }
%"struct.casadi::casadi_nlpsol_detect_bounds_data" = type { ptr, ptr, ptr, ptr, ptr, ptr, ptr, ptr, ptr, ptr }

; Function Attrs: mustprogress uwtable
define void @_ZNK6casadi5Qrsqp8set_workEPvRPPKdRPPdRPxRS6_(ptr noundef nonnull align 8 dereferenceable(2049) %0, ptr noundef %1, ptr noundef nonnull align 8 dereferenceable(8) %2, ptr noundef nonnull align 8 dereferenceable(8) %3, ptr noundef nonnull align 8 dereferenceable(8) %4, ptr noundef nonnull align 8 dereferenceable(8) %5) unnamed_addr #4 align 2 {
  %7 = alloca ptr, align 8
  %8 = alloca ptr, align 8
  %9 = alloca ptr, align 8
  %10 = alloca ptr, align 8
  %11 = alloca ptr, align 8
  %12 = alloca ptr, align 8
  %13 = alloca ptr, align 8
  store ptr %0, ptr %7, align 8
  store ptr %1, ptr %8, align 8
  store ptr %2, ptr %9, align 8
  store ptr %3, ptr %10, align 8
  store ptr %4, ptr %11, align 8
  store ptr %5, ptr %12, align 8
  %14 = load ptr, ptr %7, align 8
  %15 = load ptr, ptr %8, align 8
  store ptr %15, ptr %13, align 8
  %16 = load ptr, ptr %8, align 8
  %17 = load ptr, ptr %9, align 8
  %18 = load ptr, ptr %10, align 8
  %19 = load ptr, ptr %11, align 8
  %20 = load ptr, ptr %12, align 8
  call void @_ZNK6casadi6Nlpsol8set_workEPvRPPKdRPPdRPxRS6_(ptr noundef nonnull align 8 dereferenceable(1928) %14, ptr noundef %16, ptr noundef nonnull align 8 dereferenceable(8) %17, ptr noundef nonnull align 8 dereferenceable(8) %18, ptr noundef nonnull align 8 dereferenceable(8) %19, ptr noundef nonnull align 8 dereferenceable(8) %20)
  %21 = load ptr, ptr %12, align 8
  %22 = load ptr, ptr %21, align 8
  %23 = load ptr, ptr %13, align 8
  %24 = getelementptr inbounds %"struct.casadi::QrsqpMemory", ptr %23, i32 0, i32 1
  store ptr %22, ptr %24, align 8
  %25 = getelementptr inbounds %"class.casadi::Nlpsol", ptr %14, i32 0, i32 3
  %26 = load i64, ptr %25, align 8
  %27 = getelementptr inbounds %"class.casadi::Nlpsol", ptr %14, i32 0, i32 4
  %28 = load i64, ptr %27, align 8
  %29 = add nsw i64 %26, %28
  %30 = load ptr, ptr %12, align 8
  %31 = load ptr, ptr %30, align 8
  %32 = getelementptr inbounds double, ptr %31, i64 %29
  store ptr %32, ptr %30, align 8
  %33 = load ptr, ptr %12, align 8
  %34 = load ptr, ptr %33, align 8
  %35 = load ptr, ptr %13, align 8
  %36 = getelementptr inbounds %"struct.casadi::QrsqpMemory", ptr %35, i32 0, i32 2
  store ptr %34, ptr %36, align 8
  %37 = getelementptr inbounds %"class.casadi::Nlpsol", ptr %14, i32 0, i32 3
  %38 = load i64, ptr %37, align 8
  %39 = load ptr, ptr %12, align 8
  %40 = load ptr, ptr %39, align 8
  %41 = getelementptr inbounds double, ptr %40, i64 %38
  store ptr %41, ptr %39, align 8
  %42 = load ptr, ptr %12, align 8
  %43 = load ptr, ptr %42, align 8
  %44 = load ptr, ptr %13, align 8
  %45 = getelementptr inbounds %"struct.casadi::QrsqpMemory", ptr %44, i32 0, i32 3
  store ptr %43, ptr %45, align 8
  %46 = getelementptr inbounds %"class.casadi::Nlpsol", ptr %14, i32 0, i32 3
  %47 = load i64, ptr %46, align 8
  %48 = load ptr, ptr %12, align 8
  %49 = load ptr, ptr %48, align 8
  %50 = getelementptr inbounds double, ptr %49, i64 %47
  store ptr %50, ptr %48, align 8
  %51 = load ptr, ptr %12, align 8
  %52 = load ptr, ptr %51, align 8
  %53 = load ptr, ptr %13, align 8
  %54 = getelementptr inbounds %"struct.casadi::QrsqpMemory", ptr %53, i32 0, i32 4
  store ptr %52, ptr %54, align 8
  %55 = getelementptr inbounds %"class.casadi::Nlpsol", ptr %14, i32 0, i32 3
  %56 = load i64, ptr %55, align 8
  %57 = load ptr, ptr %12, align 8
  %58 = load ptr, ptr %57, align 8
  %59 = getelementptr inbounds double, ptr %58, i64 %56
  store ptr %59, ptr %57, align 8
  %60 = load ptr, ptr %12, align 8
  %61 = load ptr, ptr %60, align 8
  %62 = load ptr, ptr %13, align 8
  %63 = getelementptr inbounds %"struct.casadi::QrsqpMemory", ptr %62, i32 0, i32 5
  store ptr %61, ptr %63, align 8
  %64 = getelementptr inbounds %"class.casadi::Nlpsol", ptr %14, i32 0, i32 3
  %65 = load i64, ptr %64, align 8
  %66 = getelementptr inbounds %"class.casadi::Nlpsol", ptr %14, i32 0, i32 4
  %67 = load i64, ptr %66, align 8
  %68 = add nsw i64 %65, %67
  %69 = load ptr, ptr %12, align 8
  %70 = load ptr, ptr %69, align 8
  %71 = getelementptr inbounds double, ptr %70, i64 %68
  store ptr %71, ptr %69, align 8
  %72 = load ptr, ptr %12, align 8
  %73 = load ptr, ptr %72, align 8
  %74 = load ptr, ptr %13, align 8
  %75 = getelementptr inbounds %"struct.casadi::QrsqpMemory", ptr %74, i32 0, i32 6
  store ptr %73, ptr %75, align 8
  %76 = getelementptr inbounds %"class.casadi::Nlpsol", ptr %14, i32 0, i32 3
  %77 = load i64, ptr %76, align 8
  %78 = getelementptr inbounds %"class.casadi::Nlpsol", ptr %14, i32 0, i32 4
  %79 = load i64, ptr %78, align 8
  %80 = add nsw i64 %77, %79
  %81 = load ptr, ptr %12, align 8
  %82 = load ptr, ptr %81, align 8
  %83 = getelementptr inbounds double, ptr %82, i64 %80
  store ptr %83, ptr %81, align 8
  %84 = load ptr, ptr %12, align 8
  %85 = load ptr, ptr %84, align 8
  %86 = load ptr, ptr %13, align 8
  %87 = getelementptr inbounds %"struct.casadi::QrsqpMemory", ptr %86, i32 0, i32 7
  store ptr %85, ptr %87, align 8
  %88 = getelementptr inbounds %"class.casadi::Nlpsol", ptr %14, i32 0, i32 3
  %89 = load i64, ptr %88, align 8
  %90 = getelementptr inbounds %"class.casadi::Nlpsol", ptr %14, i32 0, i32 4
  %91 = load i64, ptr %90, align 8
  %92 = add nsw i64 %89, %91
  %93 = load ptr, ptr %12, align 8
  %94 = load ptr, ptr %93, align 8
  %95 = getelementptr inbounds double, ptr %94, i64 %92
  store ptr %95, ptr %93, align 8
  %96 = load ptr, ptr %12, align 8
  %97 = load ptr, ptr %96, align 8
  %98 = load ptr, ptr %13, align 8
  %99 = getelementptr inbounds %"struct.casadi::QrsqpMemory", ptr %98, i32 0, i32 8
  store ptr %97, ptr %99, align 8
  %100 = getelementptr inbounds %"class.casadi::Nlpsol", ptr %14, i32 0, i32 3
  %101 = load i64, ptr %100, align 8
  %102 = getelementptr inbounds %"class.casadi::Nlpsol", ptr %14, i32 0, i32 4
  %103 = load i64, ptr %102, align 8
  %104 = add nsw i64 %101, %103
  %105 = load ptr, ptr %12, align 8
  %106 = load ptr, ptr %105, align 8
  %107 = getelementptr inbounds double, ptr %106, i64 %104
  store ptr %107, ptr %105, align 8
  %108 = load ptr, ptr %12, align 8
  %109 = load ptr, ptr %108, align 8
  %110 = load ptr, ptr %13, align 8
  %111 = getelementptr inbounds %"struct.casadi::QrsqpMemory", ptr %110, i32 0, i32 10
  store ptr %109, ptr %111, align 8
  %112 = getelementptr inbounds %"class.casadi::Qrsqp", ptr %14, i32 0, i32 17
  %113 = call noundef i64 @_ZNK6casadi8Sparsity3nnzEv(ptr noundef nonnull align 8 dereferenceable(8) %112)
  %114 = load ptr, ptr %12, align 8
  %115 = load ptr, ptr %114, align 8
  %116 = getelementptr inbounds double, ptr %115, i64 %113
  store ptr %116, ptr %114, align 8
  %117 = load ptr, ptr %12, align 8
  %118 = load ptr, ptr %117, align 8
  %119 = load ptr, ptr %13, align 8
  %120 = getelementptr inbounds %"struct.casadi::QrsqpMemory", ptr %119, i32 0, i32 9
  store ptr %118, ptr %120, align 8
  %121 = getelementptr inbounds %"class.casadi::Qrsqp", ptr %14, i32 0, i32 18
  %122 = call noundef i64 @_ZNK6casadi8Sparsity3nnzEv(ptr noundef nonnull align 8 dereferenceable(8) %121)
  %123 = load ptr, ptr %12, align 8
  %124 = load ptr, ptr %123, align 8
  %125 = getelementptr inbounds double, ptr %124, i64 %122
  store ptr %125, ptr %123, align 8
  %126 = load ptr, ptr %12, align 8
  %127 = load ptr, ptr %126, align 8
  %128 = load ptr, ptr %13, align 8
  %129 = getelementptr inbounds %"struct.casadi::QrsqpMemory", ptr %128, i32 0, i32 13
  store ptr %127, ptr %129, align 8
  %130 = getelementptr inbounds %"class.casadi::Qrsqp", ptr %14, i32 0, i32 13
  %131 = load i64, ptr %130, align 8
  %132 = load ptr, ptr %12, align 8
  %133 = load ptr, ptr %132, align 8
  %134 = getelementptr inbounds double, ptr %133, i64 %131
  store ptr %134, ptr %132, align 8
  %135 = load ptr, ptr %13, align 8
  %136 = getelementptr inbounds %"struct.casadi::QrsqpMemory", ptr %135, i32 0, i32 16
  store i32 -1, ptr %136, align 8
  ret void
}