; Function Attrs: mustprogress uwtable
define void @_ZNK6casadi5Qrsqp8set_workEPvRPPKdRPPdRPxRS6_(ptr noundef nonnull align 8 dereferenceable(2049) %0, ptr noundef %1, ptr noundef nonnull align 8 dereferenceable(8) %2, ptr noundef nonnull align 8 dereferenceable(8) %3, ptr noundef nonnull align 8 dereferenceable(8) %4, ptr noundef nonnull align 8 dereferenceable(8) %5) unnamed_addr #3 align 2 {
  tail call void @_ZNK6casadi6Nlpsol8set_workEPvRPPKdRPPdRPxRS6_(ptr noundef nonnull align 8 dereferenceable(1928) %0, ptr noundef %1, ptr noundef nonnull align 8 dereferenceable(8) %2, ptr noundef nonnull align 8 dereferenceable(8) %3, ptr noundef nonnull align 8 dereferenceable(8) %4, ptr noundef nonnull align 8 dereferenceable(8) %5)
  %7 = load ptr, ptr %5, align 8
  %8 = getelementptr inbounds i8, ptr %1, i64 368
  store ptr %7, ptr %8, align 8
  %9 = getelementptr inbounds i8, ptr %0, i64 1640
  %10 = load i64, ptr %9, align 8
  %11 = getelementptr inbounds i8, ptr %0, i64 1648
  %12 = load i64, ptr %11, align 8
  %13 = getelementptr double, ptr %7, i64 %10
  %14 = getelementptr double, ptr %13, i64 %12
  store ptr %14, ptr %5, align 8
  %15 = getelementptr inbounds i8, ptr %1, i64 376
  store ptr %14, ptr %15, align 8
  %16 = load i64, ptr %9, align 8
  %17 = load ptr, ptr %5, align 8
  %18 = getelementptr inbounds double, ptr %17, i64 %16
  store ptr %18, ptr %5, align 8
  %19 = getelementptr inbounds i8, ptr %1, i64 384
  store ptr %18, ptr %19, align 8
  %20 = load i64, ptr %9, align 8
  %21 = load ptr, ptr %5, align 8
  %22 = getelementptr inbounds double, ptr %21, i64 %20
  store ptr %22, ptr %5, align 8
  %23 = getelementptr inbounds i8, ptr %1, i64 392
  store ptr %22, ptr %23, align 8
  %24 = load i64, ptr %9, align 8
  %25 = load ptr, ptr %5, align 8
  %26 = getelementptr inbounds double, ptr %25, i64 %24
  store ptr %26, ptr %5, align 8
  %27 = getelementptr inbounds i8, ptr %1, i64 400
  store ptr %26, ptr %27, align 8
  %28 = load i64, ptr %9, align 8
  %29 = load i64, ptr %11, align 8
  %30 = load ptr, ptr %5, align 8
  %31 = getelementptr double, ptr %30, i64 %28
  %32 = getelementptr double, ptr %31, i64 %29
  store ptr %32, ptr %5, align 8
  %33 = getelementptr inbounds i8, ptr %1, i64 408
  store ptr %32, ptr %33, align 8
  %34 = load i64, ptr %9, align 8
  %35 = load i64, ptr %11, align 8
  %36 = load ptr, ptr %5, align 8
  %37 = getelementptr double, ptr %36, i64 %34
  %38 = getelementptr double, ptr %37, i64 %35
  store ptr %38, ptr %5, align 8
  %39 = getelementptr inbounds i8, ptr %1, i64 416
  store ptr %38, ptr %39, align 8
  %40 = load i64, ptr %9, align 8
  %41 = load i64, ptr %11, align 8
  %42 = load ptr, ptr %5, align 8
  %43 = getelementptr double, ptr %42, i64 %40
  %44 = getelementptr double, ptr %43, i64 %41
  store ptr %44, ptr %5, align 8
  %45 = getelementptr inbounds i8, ptr %1, i64 424
  store ptr %44, ptr %45, align 8
  %46 = load i64, ptr %9, align 8
  %47 = load i64, ptr %11, align 8
  %48 = load ptr, ptr %5, align 8
  %49 = getelementptr double, ptr %48, i64 %46
  %50 = getelementptr double, ptr %49, i64 %47
  store ptr %50, ptr %5, align 8
  %51 = getelementptr inbounds i8, ptr %1, i64 440
  store ptr %50, ptr %51, align 8
  %52 = getelementptr inbounds i8, ptr %0, i64 2032
  %53 = tail call noundef i64 @_ZNK6casadi8Sparsity3nnzEv(ptr noundef nonnull align 8 dereferenceable(8) %52)
  %54 = load ptr, ptr %5, align 8
  %55 = getelementptr inbounds double, ptr %54, i64 %53
  store ptr %55, ptr %5, align 8
  %56 = getelementptr inbounds i8, ptr %1, i64 432
  store ptr %55, ptr %56, align 8
  %57 = getelementptr inbounds i8, ptr %0, i64 2040
  %58 = tail call noundef i64 @_ZNK6casadi8Sparsity3nnzEv(ptr noundef nonnull align 8 dereferenceable(8) %57)
  %59 = load ptr, ptr %5, align 8
  %60 = getelementptr inbounds double, ptr %59, i64 %58
  store ptr %60, ptr %5, align 8
  %61 = getelementptr inbounds i8, ptr %1, i64 464
  store ptr %60, ptr %61, align 8
  %62 = getelementptr inbounds i8, ptr %0, i64 2016
  %63 = load i64, ptr %62, align 8
  %64 = load ptr, ptr %5, align 8
  %65 = getelementptr inbounds double, ptr %64, i64 %63
  store ptr %65, ptr %5, align 8
  %66 = getelementptr inbounds i8, ptr %1, i64 488
  store i32 -1, ptr %66, align 8
  ret void
}